; Function Attrs: mustprogress nounwind uwtable
define dso_local void @_ZN17IntVectorResourceD2Ev(ptr noundef nonnull align 8 dereferenceable(80) initializes((0, 8)) %0) unnamed_addr #3 align 2 personality ptr @__gxx_personality_v0 {
  store ptr getelementptr inbounds nuw inrange(-16, 64) (i8, ptr @_ZTV17IntVectorResource, i64 16), ptr %0, align 8, !tbaa !9
  %2 = getelementptr inbounds nuw i8, ptr %0, i64 72
  %3 = load ptr, ptr %2, align 8, !tbaa !58
  %4 = icmp eq ptr %3, null
  br i1 %4, label %6, label %5

5:                                                ; preds = %1
  tail call void @_ZdaPv(ptr noundef nonnull %3) #35
  br label %6

6:                                                ; preds = %5, %1
  store ptr getelementptr inbounds nuw inrange(-16, 64) (i8, ptr @_ZTV9SResource, i64 16), ptr %0, align 8, !tbaa !9
  %7 = getelementptr inbounds nuw i8, ptr %0, i64 40
  invoke void @ustr_deinit(ptr noundef nonnull %7)
          to label %_ZN9SResourceD2Ev.exit unwind label %8

8:                                                ; preds = %6
  %9 = landingpad { ptr, i32 }
          catch ptr null
  %10 = extractvalue { ptr, i32 } %9, 0
  tail call void @__clang_call_terminate(ptr %10) #31
  unreachable

_ZN9SResourceD2Ev.exit:                           ; preds = %6
  ret void
}